; Function Attrs: mustprogress nofree norecurse nosync nounwind willreturn memory(argmem: readwrite) uwtable
define noundef range(i32 0, 2) i32 @_ZNK5arrow14BasicDecimal326DivideERKS0_PS0_S3_(ptr noundef nonnull readonly align 4 captures(none) dereferenceable(4) %0, ptr noundef nonnull readonly align 4 captures(none) dereferenceable(4) %1, ptr noundef writeonly captures(none) %2, ptr noundef writeonly captures(address_is_null) %3) local_unnamed_addr #5 align 2 {
  %5 = load i32, ptr %1, align 4, !tbaa !10
  %6 = icmp eq i32 %5, 0
  br i1 %6, label %14, label %7

7:                                                ; preds = %4
  %8 = load i32, ptr %0, align 4, !tbaa !10
  %9 = sdiv i32 %8, %5
  store i32 %9, ptr %2, align 4
  %.not = icmp eq ptr %3, null
  br i1 %.not, label %14, label %10

10:                                               ; preds = %7
  %11 = load i32, ptr %0, align 4, !tbaa !10
  %12 = load i32, ptr %1, align 4, !tbaa !10
  %13 = srem i32 %11, %12
  store i32 %13, ptr %3, align 4
  br label %14

14:                                               ; preds = %7, %10, %4
  %.0 = phi i32 [ 1, %4 ], [ 0, %10 ], [ 0, %7 ]
  ret i32 %.0
}